target datalayout = "e-m:e-p270:32:32-p271:32:32-p272:64:64-i64:64-i128:128-f80:128-n8:16:32:64-S128"
target triple = "x86_64-unknown-linux-gnu"

%"class.zmq::io_thread_t" = type { %"class.zmq::object_t.base", %"struct.zmq::i_poll_events", %"class.zmq::mailbox_t", ptr, ptr }
%"class.zmq::object_t.base" = type <{ ptr, ptr, i32 }>
%"struct.zmq::i_poll_events" = type { ptr }
%"class.zmq::mailbox_t" = type <{ %"class.zmq::i_mailbox", %"class.zmq::ypipe_t", %"class.zmq::signaler_t", [4 x i8], %"class.zmq::mutex_t", i8, [7 x i8] }>
%"class.zmq::i_mailbox" = type { ptr }
%"class.zmq::ypipe_t" = type { %"class.zmq::ypipe_base_t", %"class.zmq::yqueue_t", ptr, ptr, ptr, %"class.zmq::atomic_ptr_t.0" }
%"class.zmq::ypipe_base_t" = type { ptr }
%"class.zmq::yqueue_t" = type { ptr, i32, ptr, i32, ptr, i32, %"class.zmq::atomic_ptr_t" }
%"class.zmq::atomic_ptr_t" = type { %"struct.std::atomic" }
%"struct.std::atomic" = type { %"struct.std::__atomic_base" }
%"struct.std::__atomic_base" = type { ptr }
%"class.zmq::atomic_ptr_t.0" = type { %"struct.std::atomic.1" }
%"struct.std::atomic.1" = type { %"struct.std::__atomic_base.2" }
%"struct.std::__atomic_base.2" = type { ptr }
%"class.zmq::signaler_t" = type { i32, i32, i32 }
%"class.zmq::mutex_t" = type <{ %union.pthread_mutex_t, %union.pthread_mutexattr_t, [4 x i8] }>
%union.pthread_mutex_t = type { %struct.__pthread_mutex_s }
%struct.__pthread_mutex_s = type { i32, i32, i32, i32, i32, i16, i16, %struct.__pthread_internal_list }
%struct.__pthread_internal_list = type { ptr, ptr }
%union.pthread_mutexattr_t = type { i32 }
%"struct.zmq::command_t" = type { ptr, i32, %"union.zmq::command_t::args_t", [24 x i8] }
%"union.zmq::command_t::args_t" = type { %struct.anon.66 }
%struct.anon.66 = type { i64, ptr, ptr }

@stderr = external global ptr, align 8
@.str.1 = private unnamed_addr constant [109 x i8] c"generated/home/dtcxzyw/WorkSpace/Projects/compilers/llvm-opt-benchmark/bench/libzmq/libzmq/src/io_thread.cpp\00", align 1
@.str.4 = private unnamed_addr constant [12 x i8] c"%s (%s:%d)\0A\00", align 1

; Function Attrs: mustprogress uwtable
define void @_ZN3zmq11io_thread_t8in_eventEv(ptr noundef nonnull align 8 dereferenceable(224) %this) unnamed_addr #0 align 2 {
entry:
  %this.addr = alloca ptr, align 8
  %cmd = alloca %"struct.zmq::command_t", align 64
  %rc = alloca i32, align 4
  %errstr = alloca ptr, align 8
  store ptr %this, ptr %this.addr, align 8
  %this1 = load ptr, ptr %this.addr, align 8
  %_mailbox = getelementptr inbounds %"class.zmq::io_thread_t", ptr %this1, i32 0, i32 2
  %call = call noundef i32 @_ZN3zmq9mailbox_t4recvEPNS_9command_tEi(ptr noundef nonnull align 8 dereferenceable(176) %_mailbox, ptr noundef %cmd, i32 noundef 0)
  store i32 %call, ptr %rc, align 4
  br label %while.cond

while.cond:                                       ; preds = %if.end, %entry
  %0 = load i32, ptr %rc, align 4
  %cmp = icmp eq i32 %0, 0
  br i1 %cmp, label %lor.end, label %lor.rhs

lor.rhs:                                          ; preds = %while.cond
  %call2 = call ptr @__errno_location() #14
  %1 = load i32, ptr %call2, align 4
  %cmp3 = icmp eq i32 %1, 4
  br label %lor.end

lor.end:                                          ; preds = %lor.rhs, %while.cond
  %2 = phi i1 [ true, %while.cond ], [ %cmp3, %lor.rhs ]
  br i1 %2, label %while.body, label %while.end

while.body:                                       ; preds = %lor.end
  %3 = load i32, ptr %rc, align 4
  %cmp4 = icmp eq i32 %3, 0
  br i1 %cmp4, label %if.then, label %if.end

if.then:                                          ; preds = %while.body
  %destination = getelementptr inbounds %"struct.zmq::command_t", ptr %cmd, i32 0, i32 0
  %4 = load ptr, ptr %destination, align 64
  call void @_ZN3zmq8object_t15process_commandERKNS_9command_tE(ptr noundef nonnull align 8 dereferenceable(20) %4, ptr noundef nonnull align 64 dereferenceable(64) %cmd)
  br label %if.end

if.end:                                           ; preds = %if.then, %while.body
  %_mailbox5 = getelementptr inbounds %"class.zmq::io_thread_t", ptr %this1, i32 0, i32 2
  %call6 = call noundef i32 @_ZN3zmq9mailbox_t4recvEPNS_9command_tEi(ptr noundef nonnull align 8 dereferenceable(176) %_mailbox5, ptr noundef %cmd, i32 noundef 0)
  store i32 %call6, ptr %rc, align 4
  br label %while.cond, !llvm.loop !4

while.end:                                        ; preds = %lor.end
  br label %do.body

do.body:                                          ; preds = %while.end
  %5 = load i32, ptr %rc, align 4
  %cmp7 = icmp ne i32 %5, 0
  br i1 %cmp7, label %land.rhs, label %land.end

land.rhs:                                         ; preds = %do.body
  %call8 = call ptr @__errno_location() #14
  %6 = load i32, ptr %call8, align 4
  %cmp9 = icmp eq i32 %6, 11
  br label %land.end

land.end:                                         ; preds = %land.rhs, %do.body
  %7 = phi i1 [ false, %do.body ], [ %cmp9, %land.rhs ]
  %lnot = xor i1 %7, true
  br i1 %lnot, label %if.then10, label %if.end15

if.then10:                                        ; preds = %land.end
  %call11 = call ptr @__errno_location() #14
  %8 = load i32, ptr %call11, align 4
  %call12 = call ptr @strerror(i32 noundef %8) #11
  store ptr %call12, ptr %errstr, align 8
  %9 = load ptr, ptr @stderr, align 8
  %10 = load ptr, ptr %errstr, align 8
  %call13 = call i32 (ptr, ptr, ...) @fprintf(ptr noundef %9, ptr noundef @.str.4, ptr noundef %10, ptr noundef @.str.1, i32 noundef 68)
  %11 = load ptr, ptr @stderr, align 8
  %call14 = call i32 @fflush(ptr noundef %11)
  %12 = load ptr, ptr %errstr, align 8
  call void @_ZN3zmq9zmq_abortEPKc(ptr noundef %12)
  br label %if.end15

if.end15:                                         ; preds = %if.then10, %land.end
  br label %do.end

do.end:                                           ; preds = %if.end15
  ret void
}