; Function Attrs: mustprogress uwtable
define void @_ZN3zmq11io_thread_t8in_eventEv(ptr noundef nonnull align 8 dereferenceable(224) %this) unnamed_addr #0 align 2 {
entry:
  %cmd = alloca %"struct.zmq::command_t", align 64
  %_mailbox = getelementptr inbounds i8, ptr %this, i64 32
  br label %while.cond

while.cond:                                       ; preds = %while.cond.backedge, %entry
  %call6 = call noundef i32 @_ZN3zmq9mailbox_t4recvEPNS_9command_tEi(ptr noundef nonnull align 8 dereferenceable(176) %_mailbox, ptr noundef nonnull %cmd, i32 noundef 0)
  %cmp = icmp eq i32 %call6, 0
  br i1 %cmp, label %if.then, label %lor.rhs

lor.rhs:                                          ; preds = %while.cond
  %call2 = tail call ptr @__errno_location() #16
  %0 = load i32, ptr %call2, align 4
  switch i32 %0, label %if.then10 [
    i32 4, label %while.cond.backedge
    i32 11, label %do.end
  ]

while.cond.backedge:                              ; preds = %lor.rhs, %if.then
  br label %while.cond, !llvm.loop !4

if.then:                                          ; preds = %while.cond
  %1 = load ptr, ptr %cmd, align 64
  call void @_ZN3zmq8object_t15process_commandERKNS_9command_tE(ptr noundef nonnull align 8 dereferenceable(20) %1, ptr noundef nonnull align 64 dereferenceable(64) %cmd)
  br label %while.cond.backedge

if.then10:                                        ; preds = %lor.rhs
  %call12 = call ptr @strerror(i32 noundef %0) #15
  %2 = load ptr, ptr @stderr, align 8
  %call13 = call i32 (ptr, ptr, ...) @fprintf(ptr noundef %2, ptr noundef nonnull @.str.4, ptr noundef %call12, ptr noundef nonnull @.str.1, i32 noundef 68) #13
  %3 = load ptr, ptr @stderr, align 8
  %call14 = call i32 @fflush(ptr noundef %3)
  call void @_ZN3zmq9zmq_abortEPKc(ptr noundef %call12)
  br label %do.end

do.end:                                           ; preds = %lor.rhs, %if.then10
  ret void
}